; Function Attrs: nounwind uwtable
define internal i32 @dct_sad8x8_c(ptr noundef readonly captures(none) %0, ptr noundef %1, ptr noundef %2, i64 noundef %3, i32 %4) #7 {
  %6 = alloca [64 x i16], align 16
  call void @llvm.lifetime.start.p0(i64 128, ptr nonnull %6) #12
  %7 = getelementptr inbounds nuw i8, ptr %0, i64 5016
  %8 = load ptr, ptr %7, align 8, !tbaa !35
  call void %8(ptr noundef nonnull %6, ptr noundef %1, ptr noundef %2, i64 noundef %3) #12
  %9 = getelementptr inbounds nuw i8, ptr %0, i64 4904
  %10 = load ptr, ptr %9, align 8, !tbaa !71
  call void %10(ptr noundef nonnull %6) #12
  %11 = getelementptr inbounds nuw i8, ptr %0, i64 6968
  %12 = load ptr, ptr %11, align 8, !tbaa !72
  %13 = call i32 %12(ptr noundef nonnull %6) #12
  call void @llvm.lifetime.end.p0(i64 128, ptr nonnull %6) #12
  ret i32 %13
}